target datalayout = "e-m:e-p270:32:32-p271:32:32-p272:64:64-i64:64-i128:128-f80:128-n8:16:32:64-S128"
target triple = "x86_64-pc-linux-gnu"

@.str = private unnamed_addr constant [1 x i8] zeroinitializer, align 1
@.str.1 = private unnamed_addr constant [5 x i8] c"true\00", align 1
@.str.2 = private unnamed_addr constant [6 x i8] c"false\00", align 1
@.str.3 = private unnamed_addr constant [4 x i8] c"yes\00", align 1
@.str.4 = private unnamed_addr constant [3 x i8] c"no\00", align 1
@.str.5 = private unnamed_addr constant [3 x i8] c"on\00", align 1
@.str.6 = private unnamed_addr constant [4 x i8] c"off\00", align 1
@.str.7 = private unnamed_addr constant [2 x i8] c"1\00", align 1
@.str.8 = private unnamed_addr constant [2 x i8] c"0\00", align 1
@.str.9 = private unnamed_addr constant [51 x i8] c"unrecognized value \22%s\22 for \22%s\22: Boolean expected\00", align 1

; Function Attrs: nounwind uwtable
define dso_local zeroext i1 @ParseVariableBool(ptr noundef %0, ptr noundef %1, ptr noundef %2) #0 {
  %4 = alloca ptr, align 8
  %5 = alloca ptr, align 8
  %6 = alloca ptr, align 8
  %7 = alloca i64, align 8
  %8 = alloca i8, align 1
  store ptr %0, ptr %4, align 8
  store ptr %1, ptr %5, align 8
  store ptr %2, ptr %6, align 8
  call void @llvm.lifetime.start.p0(i64 8, ptr %7) #6
  call void @llvm.lifetime.start.p0(i64 1, ptr %8) #6
  store i8 1, ptr %8, align 1
  %9 = load ptr, ptr %4, align 8
  %10 = icmp eq ptr %9, null
  br i1 %10, label %11, label %12

11:                                               ; preds = %3
  store ptr @.str, ptr %4, align 8
  br label %12

12:                                               ; preds = %11, %3
  %13 = load ptr, ptr %4, align 8
  %14 = call i64 @strlen(ptr noundef %13) #7
  store i64 %14, ptr %7, align 8
  %15 = load i64, ptr %7, align 8
  %16 = icmp ugt i64 %15, 0
  br i1 %16, label %17, label %24

17:                                               ; preds = %12
  %18 = load ptr, ptr %4, align 8
  %19 = load i64, ptr %7, align 8
  %20 = call i32 @pg_strncasecmp(ptr noundef %18, ptr noundef @.str.1, i64 noundef %19)
  %21 = icmp eq i32 %20, 0
  br i1 %21, label %22, label %24

22:                                               ; preds = %17
  %23 = load ptr, ptr %6, align 8
  store i8 1, ptr %23, align 1
  br label %106

24:                                               ; preds = %17, %12
  %25 = load i64, ptr %7, align 8
  %26 = icmp ugt i64 %25, 0
  br i1 %26, label %27, label %34

27:                                               ; preds = %24
  %28 = load ptr, ptr %4, align 8
  %29 = load i64, ptr %7, align 8
  %30 = call i32 @pg_strncasecmp(ptr noundef %28, ptr noundef @.str.2, i64 noundef %29)
  %31 = icmp eq i32 %30, 0
  br i1 %31, label %32, label %34

32:                                               ; preds = %27
  %33 = load ptr, ptr %6, align 8
  store i8 0, ptr %33, align 1
  br label %105

34:                                               ; preds = %27, %24
  %35 = load i64, ptr %7, align 8
  %36 = icmp ugt i64 %35, 0
  br i1 %36, label %37, label %44

37:                                               ; preds = %34
  %38 = load ptr, ptr %4, align 8
  %39 = load i64, ptr %7, align 8
  %40 = call i32 @pg_strncasecmp(ptr noundef %38, ptr noundef @.str.3, i64 noundef %39)
  %41 = icmp eq i32 %40, 0
  br i1 %41, label %42, label %44

42:                                               ; preds = %37
  %43 = load ptr, ptr %6, align 8
  store i8 1, ptr %43, align 1
  br label %104

44:                                               ; preds = %37, %34
  %45 = load i64, ptr %7, align 8
  %46 = icmp ugt i64 %45, 0
  br i1 %46, label %47, label %54

47:                                               ; preds = %44
  %48 = load ptr, ptr %4, align 8
  %49 = load i64, ptr %7, align 8
  %50 = call i32 @pg_strncasecmp(ptr noundef %48, ptr noundef @.str.4, i64 noundef %49)
  %51 = icmp eq i32 %50, 0
  br i1 %51, label %52, label %54

52:                                               ; preds = %47
  %53 = load ptr, ptr %6, align 8
  store i8 0, ptr %53, align 1
  br label %103

54:                                               ; preds = %47, %44
  %55 = load ptr, ptr %4, align 8
  %56 = load i64, ptr %7, align 8
  %57 = icmp ugt i64 %56, 2
  br i1 %57, label %58, label %60

58:                                               ; preds = %54
  %59 = load i64, ptr %7, align 8
  br label %61

60:                                               ; preds = %54
  br label %61

61:                                               ; preds = %60, %58
  %62 = phi i64 [ %59, %58 ], [ 2, %60 ]
  %63 = call i32 @pg_strncasecmp(ptr noundef %55, ptr noundef @.str.5, i64 noundef %62)
  %64 = icmp eq i32 %63, 0
  br i1 %64, label %65, label %67

65:                                               ; preds = %61
  %66 = load ptr, ptr %6, align 8
  store i8 1, ptr %66, align 1
  br label %102

67:                                               ; preds = %61
  %68 = load ptr, ptr %4, align 8
  %69 = load i64, ptr %7, align 8
  %70 = icmp ugt i64 %69, 2
  br i1 %70, label %71, label %73

71:                                               ; preds = %67
  %72 = load i64, ptr %7, align 8
  br label %74

73:                                               ; preds = %67
  br label %74

74:                                               ; preds = %73, %71
  %75 = phi i64 [ %72, %71 ], [ 2, %73 ]
  %76 = call i32 @pg_strncasecmp(ptr noundef %68, ptr noundef @.str.6, i64 noundef %75)
  %77 = icmp eq i32 %76, 0
  br i1 %77, label %78, label %80

78:                                               ; preds = %74
  %79 = load ptr, ptr %6, align 8
  store i8 0, ptr %79, align 1
  br label %101

80:                                               ; preds = %74
  %81 = load ptr, ptr %4, align 8
  %82 = call i32 @pg_strcasecmp(ptr noundef %81, ptr noundef @.str.7)
  %83 = icmp eq i32 %82, 0
  br i1 %83, label %84, label %86

84:                                               ; preds = %80
  %85 = load ptr, ptr %6, align 8
  store i8 1, ptr %85, align 1
  br label %100

86:                                               ; preds = %80
  %87 = load ptr, ptr %4, align 8
  %88 = call i32 @pg_strcasecmp(ptr noundef %87, ptr noundef @.str.8)
  %89 = icmp eq i32 %88, 0
  br i1 %89, label %90, label %92

90:                                               ; preds = %86
  %91 = load ptr, ptr %6, align 8
  store i8 0, ptr %91, align 1
  br label %99

92:                                               ; preds = %86
  %93 = load ptr, ptr %5, align 8
  %94 = icmp ne ptr %93, null
  br i1 %94, label %95, label %98

95:                                               ; preds = %92
  %96 = load ptr, ptr %4, align 8
  %97 = load ptr, ptr %5, align 8
  call void (i32, i32, ptr, ...) @pg_log_generic(i32 noundef 4, i32 noundef 0, ptr noundef @.str.9, ptr noundef %96, ptr noundef %97)
  br label %98

98:                                               ; preds = %95, %92
  store i8 0, ptr %8, align 1
  br label %99

99:                                               ; preds = %98, %90
  br label %100

100:                                              ; preds = %99, %84
  br label %101

101:                                              ; preds = %100, %78
  br label %102

102:                                              ; preds = %101, %65
  br label %103

103:                                              ; preds = %102, %52
  br label %104

104:                                              ; preds = %103, %42
  br label %105

105:                                              ; preds = %104, %32
  br label %106

106:                                              ; preds = %105, %22
  %107 = load i8, ptr %8, align 1, !range !6, !noundef !7
  %108 = trunc i8 %107 to i1
  call void @llvm.lifetime.end.p0(i64 1, ptr %8) #6
  call void @llvm.lifetime.end.p0(i64 8, ptr %7) #6
  ret i1 %108
}