; Function Attrs: nounwind uwtable
define dso_local noundef zeroext i1 @ParseVariableBool(ptr noundef %0, ptr noundef %1, ptr noundef writeonly captures(none) %2) local_unnamed_addr #0 {
  %4 = icmp eq ptr %0, null
  %spec.store.select = select i1 %4, ptr @.str, ptr %0
  %5 = tail call i64 @strlen(ptr noundef nonnull dereferenceable(1) %spec.store.select) #12
  %.not = icmp eq i64 %5, 0
  br i1 %.not, label %.critedge37, label %6

6:                                                ; preds = %3
  %7 = tail call i32 @pg_strncasecmp(ptr noundef nonnull %spec.store.select, ptr noundef nonnull @.str.1, i64 noundef %5) #11
  %8 = icmp eq i32 %7, 0
  br i1 %8, label %9, label %10

9:                                                ; preds = %6
  store i8 1, ptr %2, align 1
  br label %38

10:                                               ; preds = %6
  %11 = tail call i32 @pg_strncasecmp(ptr noundef nonnull %spec.store.select, ptr noundef nonnull @.str.2, i64 noundef %5) #11
  %12 = icmp eq i32 %11, 0
  br i1 %12, label %13, label %.critedge

13:                                               ; preds = %10
  store i8 0, ptr %2, align 1
  br label %38

.critedge:                                        ; preds = %10
  %14 = tail call i32 @pg_strncasecmp(ptr noundef nonnull %spec.store.select, ptr noundef nonnull @.str.3, i64 noundef %5) #11
  %15 = icmp eq i32 %14, 0
  br i1 %15, label %16, label %.critedge36

16:                                               ; preds = %.critedge
  store i8 1, ptr %2, align 1
  br label %38

.critedge36:                                      ; preds = %.critedge
  %17 = tail call i32 @pg_strncasecmp(ptr noundef nonnull %spec.store.select, ptr noundef nonnull @.str.4, i64 noundef %5) #11
  %18 = icmp eq i32 %17, 0
  br i1 %18, label %19, label %.critedge37

19:                                               ; preds = %.critedge36
  store i8 0, ptr %2, align 1
  br label %38

.critedge37:                                      ; preds = %3, %.critedge36
  %20 = tail call i64 @llvm.umax.i64(i64 %5, i64 2)
  %21 = tail call i32 @pg_strncasecmp(ptr noundef nonnull %spec.store.select, ptr noundef nonnull @.str.5, i64 noundef %20) #11
  %22 = icmp eq i32 %21, 0
  br i1 %22, label %23, label %24

23:                                               ; preds = %.critedge37
  store i8 1, ptr %2, align 1
  br label %38

24:                                               ; preds = %.critedge37
  %25 = tail call i32 @pg_strncasecmp(ptr noundef nonnull %spec.store.select, ptr noundef nonnull @.str.6, i64 noundef %20) #11
  %26 = icmp eq i32 %25, 0
  br i1 %26, label %27, label %28

27:                                               ; preds = %24
  store i8 0, ptr %2, align 1
  br label %38

28:                                               ; preds = %24
  %29 = tail call i32 @pg_strcasecmp(ptr noundef nonnull %spec.store.select, ptr noundef nonnull @.str.7) #11
  %30 = icmp eq i32 %29, 0
  br i1 %30, label %31, label %32

31:                                               ; preds = %28
  store i8 1, ptr %2, align 1
  br label %38

32:                                               ; preds = %28
  %33 = tail call i32 @pg_strcasecmp(ptr noundef nonnull %spec.store.select, ptr noundef nonnull @.str.8) #11
  %34 = icmp eq i32 %33, 0
  br i1 %34, label %35, label %36

35:                                               ; preds = %32
  store i8 0, ptr %2, align 1
  br label %38

36:                                               ; preds = %32
  %.not35 = icmp eq ptr %1, null
  br i1 %.not35, label %38, label %37

37:                                               ; preds = %36
  tail call void (i32, i32, ptr, ...) @pg_log_generic(i32 noundef 4, i32 noundef 0, ptr noundef nonnull @.str.9, ptr noundef nonnull %spec.store.select, ptr noundef nonnull %1) #11
  br label %38

38:                                               ; preds = %36, %37, %13, %19, %27, %35, %31, %23, %16, %9
  %.0 = phi i1 [ true, %9 ], [ true, %13 ], [ true, %16 ], [ true, %19 ], [ true, %23 ], [ true, %27 ], [ true, %31 ], [ true, %35 ], [ false, %37 ], [ false, %36 ]
  ret i1 %.0
}